target datalayout = "e-m:e-p270:32:32-p271:32:32-p272:64:64-i64:64-i128:128-f80:128-n8:16:32:64-S128"
target triple = "x86_64-pc-linux-gnu"

%struct.ssl_st = type { i32, i16, i16, ptr, ptr, ptr, ptr, ptr, i32, i32, ptr, ptr, i32, i32, ptr, ptr, ptr, ptr, ptr, ptr, ptr, ptr, i32, i32, [32 x i8], ptr, ptr, ptr, ptr, ptr, ptr, ptr, i64, %struct.crypto_ex_data_st, ptr, i32, i32, i32, i32, i16, ptr, i32, i64, ptr, ptr, ptr, ptr, ptr, ptr, i32, i32, ptr, ptr, i8, i8, i32 }
%struct.crypto_ex_data_st = type { ptr }
%struct.ssl_protocol_method_st = type { i8, ptr, ptr, ptr, ptr, ptr, ptr, ptr, ptr, ptr, ptr, ptr, i32, ptr, ptr }
%struct.ssl3_state_st = type { [8 x i8], [8 x i8], [32 x i8], [32 x i8], i8, i8, %struct.ssl3_buffer_st, %struct.ssl3_buffer_st, %struct.ssl3_record_st, i8, i32, i32, i32, i32, ptr, ptr, %struct.env_md_ctx_st, %struct.env_md_ctx_st, i8, i32, [2 x i8], i32, i8, i8, ptr, ptr, ptr, %struct.anon, [64 x i8], i8, [64 x i8], i8, i32, i32, ptr, i64, ptr, i64, i8, [64 x i8] }
%struct.ssl3_buffer_st = type { ptr, i16, i16, i16 }
%struct.ssl3_record_st = type { i8, i16, ptr }
%struct.env_md_ctx_st = type { ptr, ptr, ptr, ptr }
%struct.anon = type { [64 x i8], i32, [64 x i8], i32, i64, i32, ptr, i32, i32, %union.anon, %union.anon.0, i8, i32, ptr, ptr, i64, ptr, i8, i8, i8, i8, i32, i8, ptr, i64, i8, ptr, i8, i8, i8, %struct.ssl_ecdh_ctx_st, ptr, i16 }
%union.anon = type { i32 }
%union.anon.0 = type { i16 }
%struct.ssl_ecdh_ctx_st = type { ptr, ptr }
%struct.ssl_aead_ctx_st = type { ptr, %struct.evp_aead_ctx_st, [12 x i8], i8, i8, i8, i8, i8, i8, i8 }
%struct.evp_aead_ctx_st = type { ptr, ptr }

; Function Attrs: nounwind uwtable
define internal i32 @ssl_needs_record_splitting(ptr noundef %0) #0 {
  %2 = alloca ptr, align 8
  store ptr %0, ptr %2, align 8, !tbaa !16
  %3 = load ptr, ptr %2, align 8, !tbaa !16
  %4 = getelementptr inbounds nuw %struct.ssl_st, ptr %3, i32 0, i32 14
  %5 = load ptr, ptr %4, align 8, !tbaa !44
  %6 = getelementptr inbounds nuw %struct.ssl3_state_st, ptr %5, i32 0, i32 25
  %7 = load ptr, ptr %6, align 8, !tbaa !59
  %8 = icmp ne ptr %7, null
  br i1 %8, label %9, label %31

9:                                                ; preds = %1
  %10 = load ptr, ptr %2, align 8, !tbaa !16
  %11 = call zeroext i16 @ssl3_protocol_version(ptr noundef %10)
  %12 = zext i16 %11 to i32
  %13 = icmp slt i32 %12, 770
  br i1 %13, label %14, label %31

14:                                               ; preds = %9
  %15 = load ptr, ptr %2, align 8, !tbaa !16
  %16 = getelementptr inbounds nuw %struct.ssl_st, ptr %15, i32 0, i32 36
  %17 = load i32, ptr %16, align 4, !tbaa !64
  %18 = zext i32 %17 to i64
  %19 = and i64 %18, 256
  %20 = icmp ne i64 %19, 0
  br i1 %20, label %21, label %31

21:                                               ; preds = %14
  %22 = load ptr, ptr %2, align 8, !tbaa !16
  %23 = getelementptr inbounds nuw %struct.ssl_st, ptr %22, i32 0, i32 14
  %24 = load ptr, ptr %23, align 8, !tbaa !44
  %25 = getelementptr inbounds nuw %struct.ssl3_state_st, ptr %24, i32 0, i32 25
  %26 = load ptr, ptr %25, align 8, !tbaa !59
  %27 = getelementptr inbounds nuw %struct.ssl_aead_ctx_st, ptr %26, i32 0, i32 0
  %28 = load ptr, ptr %27, align 8, !tbaa !60
  %29 = call i32 @SSL_CIPHER_is_block_cipher(ptr noundef %28)
  %30 = icmp ne i32 %29, 0
  br label %31

31:                                               ; preds = %21, %14, %9, %1
  %32 = phi i1 [ false, %14 ], [ false, %9 ], [ false, %1 ], [ %30, %21 ]
  %33 = zext i1 %32 to i32
  ret i32 %33
}

; Function Attrs: nounwind uwtable
define hidden i64 @ssl_seal_prefix_len(ptr noundef %0) #0 {
  %2 = alloca i64, align 8
  %3 = alloca ptr, align 8
  %4 = alloca i64, align 8
  store ptr %0, ptr %3, align 8, !tbaa !16
  %5 = load ptr, ptr %3, align 8, !tbaa !16
  %6 = getelementptr inbounds nuw %struct.ssl_st, ptr %5, i32 0, i32 3
  %7 = load ptr, ptr %6, align 8, !tbaa !18
  %8 = getelementptr inbounds nuw %struct.ssl_protocol_method_st, ptr %7, i32 0, i32 0
  %9 = load i8, ptr %8, align 8, !tbaa !42
  %10 = icmp ne i8 %9, 0
  br i1 %10, label %11, label %19

11:                                               ; preds = %1
  %12 = load ptr, ptr %3, align 8, !tbaa !16
  %13 = getelementptr inbounds nuw %struct.ssl_st, ptr %12, i32 0, i32 14
  %14 = load ptr, ptr %13, align 8, !tbaa !44
  %15 = getelementptr inbounds nuw %struct.ssl3_state_st, ptr %14, i32 0, i32 25
  %16 = load ptr, ptr %15, align 8, !tbaa !59
  %17 = call i64 @SSL_AEAD_CTX_explicit_nonce_len(ptr noundef %16)
  %18 = add i64 13, %17
  store i64 %18, ptr %2, align 8
  br label %45

19:                                               ; preds = %1
  call void @llvm.lifetime.start.p0(i64 8, ptr %4) #5
  %20 = load ptr, ptr %3, align 8, !tbaa !16
  %21 = getelementptr inbounds nuw %struct.ssl_st, ptr %20, i32 0, i32 14
  %22 = load ptr, ptr %21, align 8, !tbaa !44
  %23 = getelementptr inbounds nuw %struct.ssl3_state_st, ptr %22, i32 0, i32 25
  %24 = load ptr, ptr %23, align 8, !tbaa !59
  %25 = call i64 @SSL_AEAD_CTX_explicit_nonce_len(ptr noundef %24)
  %26 = add i64 5, %25
  store i64 %26, ptr %4, align 8, !tbaa !11
  %27 = load ptr, ptr %3, align 8, !tbaa !16
  %28 = call i32 @ssl_needs_record_splitting(ptr noundef %27)
  %29 = icmp ne i32 %28, 0
  br i1 %29, label %30, label %43

30:                                               ; preds = %19
  %31 = load i64, ptr %4, align 8, !tbaa !11
  %32 = add i64 %31, 5
  store i64 %32, ptr %4, align 8, !tbaa !11
  %33 = load ptr, ptr %3, align 8, !tbaa !16
  %34 = getelementptr inbounds nuw %struct.ssl_st, ptr %33, i32 0, i32 14
  %35 = load ptr, ptr %34, align 8, !tbaa !44
  %36 = getelementptr inbounds nuw %struct.ssl3_state_st, ptr %35, i32 0, i32 25
  %37 = load ptr, ptr %36, align 8, !tbaa !59
  %38 = getelementptr inbounds nuw %struct.ssl_aead_ctx_st, ptr %37, i32 0, i32 0
  %39 = load ptr, ptr %38, align 8, !tbaa !60
  %40 = call i64 @ssl_cipher_get_record_split_len(ptr noundef %39)
  %41 = load i64, ptr %4, align 8, !tbaa !11
  %42 = add i64 %41, %40
  store i64 %42, ptr %4, align 8, !tbaa !11
  br label %43

43:                                               ; preds = %30, %19
  %44 = load i64, ptr %4, align 8, !tbaa !11
  store i64 %44, ptr %2, align 8
  call void @llvm.lifetime.end.p0(i64 8, ptr %4) #5
  br label %45

45:                                               ; preds = %43, %11
  %46 = load i64, ptr %2, align 8
  ret i64 %46
}